target datalayout = "e-m:e-p270:32:32-p271:32:32-p272:64:64-i64:64-i128:128-f80:128-n8:16:32:64-S128"
target triple = "x86_64-pc-linux-gnu"

%struct.AVChannelLayout = type { i32, i32, %union.anon.1, ptr }
%union.anon.1 = type { i64 }
%struct.AVFilterContext = type { ptr, ptr, ptr, ptr, ptr, i32, ptr, ptr, i32, ptr, ptr, i32, i32, ptr, ptr, ptr, ptr, i32, ptr, i32, i32 }
%struct.ANoiseSrcContext = type { ptr, i32, double, double, i64, i32, i64, i32, i64, i32, ptr, [7 x double], %struct.AVLFG }
%struct.AVLFG = type { [64 x i32], i32 }

@query_formats.chlayouts = internal constant [2 x %struct.AVChannelLayout] [%struct.AVChannelLayout { i32 1, i32 1, %union.anon.1 { i64 4 }, ptr null }, %struct.AVChannelLayout zeroinitializer], align 16
@query_formats.sample_fmts = internal constant [2 x i32] [i32 4, i32 -1], align 4

; Function Attrs: cold nounwind optsize uwtable
define internal i32 @query_formats(ptr noundef %0, ptr noundef %1, ptr noundef %2) #0 {
  %4 = alloca i32, align 4
  %5 = alloca ptr, align 8
  %6 = alloca ptr, align 8
  %7 = alloca ptr, align 8
  %8 = alloca ptr, align 8
  %9 = alloca [2 x i32], align 4
  %10 = alloca i32, align 4
  %11 = alloca i32, align 4
  store ptr %0, ptr %5, align 8, !tbaa !4
  store ptr %1, ptr %6, align 8, !tbaa !9
  store ptr %2, ptr %7, align 8, !tbaa !9
  call void @llvm.lifetime.start.p0(i64 8, ptr %8) #7
  %12 = load ptr, ptr %5, align 8, !tbaa !4
  %13 = getelementptr inbounds nuw %struct.AVFilterContext, ptr %12, i32 0, i32 9
  %14 = load ptr, ptr %13, align 8, !tbaa !12
  store ptr %14, ptr %8, align 8, !tbaa !24
  call void @llvm.lifetime.start.p0(i64 8, ptr %9) #7
  %15 = load ptr, ptr %8, align 8, !tbaa !24
  %16 = getelementptr inbounds nuw %struct.ANoiseSrcContext, ptr %15, i32 0, i32 1
  %17 = load i32, ptr %16, align 8, !tbaa !26
  store i32 %17, ptr %9, align 4, !tbaa !31
  %18 = getelementptr inbounds i32, ptr %9, i64 1
  store i32 -1, ptr %18, align 4, !tbaa !31
  call void @llvm.lifetime.start.p0(i64 4, ptr %10) #7
  %19 = load ptr, ptr %5, align 8, !tbaa !4
  %20 = load ptr, ptr %6, align 8, !tbaa !9
  %21 = load ptr, ptr %7, align 8, !tbaa !9
  %22 = call i32 @ff_set_common_formats_from_list2(ptr noundef %19, ptr noundef %20, ptr noundef %21, ptr noundef @query_formats.sample_fmts)
  store i32 %22, ptr %10, align 4, !tbaa !31
  %23 = load i32, ptr %10, align 4, !tbaa !31
  %24 = icmp slt i32 %23, 0
  br i1 %24, label %25, label %27

25:                                               ; preds = %3
  %26 = load i32, ptr %10, align 4, !tbaa !31
  store i32 %26, ptr %4, align 4
  store i32 1, ptr %11, align 4
  br label %42

27:                                               ; preds = %3
  %28 = load ptr, ptr %5, align 8, !tbaa !4
  %29 = load ptr, ptr %6, align 8, !tbaa !9
  %30 = load ptr, ptr %7, align 8, !tbaa !9
  %31 = call i32 @ff_set_common_channel_layouts_from_list2(ptr noundef %28, ptr noundef %29, ptr noundef %30, ptr noundef @query_formats.chlayouts)
  store i32 %31, ptr %10, align 4, !tbaa !31
  %32 = load i32, ptr %10, align 4, !tbaa !31
  %33 = icmp slt i32 %32, 0
  br i1 %33, label %34, label %36

34:                                               ; preds = %27
  %35 = load i32, ptr %10, align 4, !tbaa !31
  store i32 %35, ptr %4, align 4
  store i32 1, ptr %11, align 4
  br label %42

36:                                               ; preds = %27
  %37 = load ptr, ptr %5, align 8, !tbaa !4
  %38 = load ptr, ptr %6, align 8, !tbaa !9
  %39 = load ptr, ptr %7, align 8, !tbaa !9
  %40 = getelementptr inbounds [2 x i32], ptr %9, i64 0, i64 0
  %41 = call i32 @ff_set_common_samplerates_from_list2(ptr noundef %37, ptr noundef %38, ptr noundef %39, ptr noundef %40)
  store i32 %41, ptr %4, align 4
  store i32 1, ptr %11, align 4
  br label %42

42:                                               ; preds = %36, %34, %25
  call void @llvm.lifetime.end.p0(i64 4, ptr %10) #7
  call void @llvm.lifetime.end.p0(i64 8, ptr %9) #7
  call void @llvm.lifetime.end.p0(i64 8, ptr %8) #7
  %43 = load i32, ptr %4, align 4
  ret i32 %43
}